; ModuleID = '24/493.c'
source_filename = "24/493.c"
target datalayout = "e-m:e-p270:32:32-p271:32:32-p272:64:64-i64:64-f80:128-n8:16:32:64-S128"
target triple = "x86_64-pc-linux-gnu"

@.str = private unnamed_addr constant [7 x i8] c"%s\0A%s\0A\00", align 1

; Function Attrs: noinline nounwind uwtable
define dso_local i32 @main() #0 {
  %1 = alloca i32, align 4
  %2 = alloca [100 x i8], align 16
  %3 = alloca i32, align 4
  %4 = alloca i32, align 4
  %5 = alloca i32, align 4
  %6 = alloca [100 x i8], align 16
  %7 = alloca [100 x i8], align 16
  %8 = alloca [100 x i8], align 16
  %9 = alloca i32, align 4
  %10 = alloca i32, align 4
  store i32 0, i32* %1, align 4
  store i32 0, i32* %3, align 4
  store i32 -1, i32* %4, align 4
  store i32 87787, i32* %5, align 4
  %11 = getelementptr inbounds [100 x i8], [100 x i8]* %2, i64 0, i64 0
  %12 = call i32 (i8*, ...) bitcast (i32 (...)* @gets to i32 (i8*, ...)*)(i8* %11)
  %13 = getelementptr inbounds [100 x i8], [100 x i8]* %2, i64 0, i64 0
  %14 = call i64 @strlen(i8* %13) #4
  %15 = trunc i64 %14 to i32
  store i32 %15, i32* %9, align 4
  %16 = load i32, i32* %9, align 4
  %17 = sext i32 %16 to i64
  %18 = getelementptr inbounds [100 x i8], [100 x i8]* %2, i64 0, i64 %17
  store i8 32, i8* %18, align 1
  store i32 0, i32* %10, align 4
  br label %19

19:                                               ; preds = %63, %0
  %20 = load i32, i32* %10, align 4
  %21 = load i32, i32* %9, align 4
  %22 = icmp sle i32 %20, %21
  br i1 %22, label %23, label %66

23:                                               ; preds = %19
  %24 = load i32, i32* %10, align 4
  %25 = sext i32 %24 to i64
  %26 = getelementptr inbounds [100 x i8], [100 x i8]* %2, i64 0, i64 %25
  %27 = load i8, i8* %26, align 1
  %28 = sext i8 %27 to i32
  %29 = icmp ne i32 %28, 32
  br i1 %29, label %30, label %40

30:                                               ; preds = %23
  %31 = load i32, i32* %10, align 4
  %32 = sext i32 %31 to i64
  %33 = getelementptr inbounds [100 x i8], [100 x i8]* %2, i64 0, i64 %32
  %34 = load i8, i8* %33, align 1
  %35 = load i32, i32* %3, align 4
  %36 = sext i32 %35 to i64
  %37 = getelementptr inbounds [100 x i8], [100 x i8]* %8, i64 0, i64 %36
  store i8 %34, i8* %37, align 1
  %38 = load i32, i32* %3, align 4
  %39 = add nsw i32 %38, 1
  store i32 %39, i32* %3, align 4
  br label %62

40:                                               ; preds = %23
  %41 = load i32, i32* %3, align 4
  %42 = sext i32 %41 to i64
  %43 = getelementptr inbounds [100 x i8], [100 x i8]* %8, i64 0, i64 %42
  store i8 0, i8* %43, align 1
  %44 = load i32, i32* %3, align 4
  %45 = load i32, i32* %5, align 4
  %46 = icmp slt i32 %44, %45
  br i1 %46, label %47, label %52

47:                                               ; preds = %40
  %48 = load i32, i32* %3, align 4
  store i32 %48, i32* %5, align 4
  %49 = getelementptr inbounds [100 x i8], [100 x i8]* %7, i64 0, i64 0
  %50 = getelementptr inbounds [100 x i8], [100 x i8]* %8, i64 0, i64 0
  %51 = call i8* @strcpy(i8* %49, i8* %50) #5
  br label %52

52:                                               ; preds = %47, %40
  %53 = load i32, i32* %3, align 4
  %54 = load i32, i32* %4, align 4
  %55 = icmp sgt i32 %53, %54
  br i1 %55, label %56, label %61

56:                                               ; preds = %52
  %57 = load i32, i32* %3, align 4
  store i32 %57, i32* %4, align 4
  %58 = getelementptr inbounds [100 x i8], [100 x i8]* %6, i64 0, i64 0
  %59 = getelementptr inbounds [100 x i8], [100 x i8]* %8, i64 0, i64 0
  %60 = call i8* @strcpy(i8* %58, i8* %59) #5
  br label %61

61:                                               ; preds = %56, %52
  store i32 0, i32* %3, align 4
  br label %62

62:                                               ; preds = %61, %30
  br label %63

63:                                               ; preds = %62
  %64 = load i32, i32* %10, align 4
  %65 = add nsw i32 %64, 1
  store i32 %65, i32* %10, align 4
  br label %19

66:                                               ; preds = %19
  %67 = getelementptr inbounds [100 x i8], [100 x i8]* %6, i64 0, i64 0
  %68 = getelementptr inbounds [100 x i8], [100 x i8]* %7, i64 0, i64 0
  %69 = call i32 (i8*, ...) @printf(i8* getelementptr inbounds ([7 x i8], [7 x i8]* @.str, i64 0, i64 0), i8* %67, i8* %68)
  ret i32 0
}

declare dso_local i32 @gets(...) #1

; Function Attrs: nounwind readonly
declare dso_local i64 @strlen(i8*) #2

; Function Attrs: nounwind
declare dso_local i8* @strcpy(i8*, i8*) #3

declare dso_local i32 @printf(i8*, ...) #1


!llvm.module.flags = !{!0}
!llvm.ident = !{!1}

!0 = !{i32 1, !"wchar_size", i32 4}
!1 = !{!"clang version 10.0.0-4ubuntu1 "}
