; ModuleID = 'source-C-CXX/23/493.c'
source_filename = "source-C-CXX/23/493.c"
target datalayout = "e-m:e-p270:32:32-p271:32:32-p272:64:64-i64:64-f80:128-n8:16:32:64-S128"
target triple = "x86_64-pc-linux-gnu"

@.str = private unnamed_addr constant [7 x i8] c"%s\0A%s\0A\00", align 1

; Function Attrs: nounwind sspstrong uwtable
define dso_local i32 @main() local_unnamed_addr #0 {
  %1 = alloca [100 x i8], align 16
  %2 = alloca [100 x i8], align 16
  %3 = alloca [100 x i8], align 16
  %4 = alloca [100 x i8], align 16
  %5 = getelementptr inbounds [100 x i8], [100 x i8]* %1, i64 0, i64 0
  call void @llvm.lifetime.start.p0i8(i64 100, i8* nonnull %5) #6
  %6 = call i32 (i8*, ...) bitcast (i32 (...)* @gets to i32 (i8*, ...)*)(i8* nonnull %5) #6
  %7 = getelementptr inbounds [100 x i8], [100 x i8]* %2, i64 0, i64 0
  call void @llvm.lifetime.start.p0i8(i64 100, i8* nonnull %7) #6
  %8 = getelementptr inbounds [100 x i8], [100 x i8]* %3, i64 0, i64 0
  call void @llvm.lifetime.start.p0i8(i64 100, i8* nonnull %8) #6
  %9 = getelementptr inbounds [100 x i8], [100 x i8]* %4, i64 0, i64 0
  call void @llvm.lifetime.start.p0i8(i64 100, i8* nonnull %9) #6
  %10 = call i64 @strlen(i8* noundef nonnull %5) #7
  %11 = trunc i64 %10 to i32
  %12 = shl i64 %10, 32
  %13 = ashr exact i64 %12, 32
  %14 = getelementptr inbounds [100 x i8], [100 x i8]* %1, i64 0, i64 %13
  store i8 32, i8* %14, align 1, !tbaa !5
  %15 = icmp slt i32 %11, 0
  br i1 %15, label %19, label %16

16:                                               ; preds = %0
  %17 = add i64 %10, 1
  %18 = and i64 %17, 4294967295
  br label %21

19:                                               ; preds = %42, %0
  %20 = call i32 (i8*, ...) @printf(i8* nonnull dereferenceable(1) getelementptr inbounds ([7 x i8], [7 x i8]* @.str, i64 0, i64 0), i8* nonnull %7, i8* nonnull %8)
  call void @llvm.lifetime.end.p0i8(i64 100, i8* nonnull %9) #6
  call void @llvm.lifetime.end.p0i8(i64 100, i8* nonnull %8) #6
  call void @llvm.lifetime.end.p0i8(i64 100, i8* nonnull %7) #6
  call void @llvm.lifetime.end.p0i8(i64 100, i8* nonnull %5) #6
  ret i32 0

21:                                               ; preds = %16, %42
  %22 = phi i64 [ 0, %16 ], [ %46, %42 ]
  %23 = phi i32 [ 0, %16 ], [ %45, %42 ]
  %24 = phi i32 [ 87787, %16 ], [ %44, %42 ]
  %25 = phi i32 [ -1, %16 ], [ %43, %42 ]
  %26 = getelementptr inbounds [100 x i8], [100 x i8]* %1, i64 0, i64 %22
  %27 = load i8, i8* %26, align 1, !tbaa !5
  %28 = icmp eq i8 %27, 32
  %29 = sext i32 %23 to i64
  %30 = getelementptr inbounds [100 x i8], [100 x i8]* %4, i64 0, i64 %29
  br i1 %28, label %33, label %31

31:                                               ; preds = %21
  store i8 %27, i8* %30, align 1, !tbaa !5
  %32 = add nsw i32 %23, 1
  br label %42

33:                                               ; preds = %21
  store i8 0, i8* %30, align 1, !tbaa !5
  %34 = icmp slt i32 %23, %24
  br i1 %34, label %35, label %37

35:                                               ; preds = %33
  %36 = call i8* @strcpy(i8* noundef nonnull %8, i8* noundef nonnull %9) #6
  br label %37

37:                                               ; preds = %35, %33
  %38 = phi i32 [ %23, %35 ], [ %24, %33 ]
  %39 = icmp sgt i32 %23, %25
  br i1 %39, label %40, label %42

40:                                               ; preds = %37
  %41 = call i8* @strcpy(i8* noundef nonnull %7, i8* noundef nonnull %9) #6
  br label %42

42:                                               ; preds = %37, %40, %31
  %43 = phi i32 [ %25, %31 ], [ %23, %40 ], [ %25, %37 ]
  %44 = phi i32 [ %24, %31 ], [ %38, %40 ], [ %38, %37 ]
  %45 = phi i32 [ %32, %31 ], [ 0, %40 ], [ 0, %37 ]
  %46 = add nuw nsw i64 %22, 1
  %47 = icmp eq i64 %46, %18
  br i1 %47, label %19, label %21, !llvm.loop !8
}

; Function Attrs: argmemonly mustprogress nofree nosync nounwind willreturn
declare void @llvm.lifetime.start.p0i8(i64 immarg, i8* nocapture) #1

declare i32 @gets(...) local_unnamed_addr #2

; Function Attrs: argmemonly mustprogress nofree nounwind readonly willreturn
declare i64 @strlen(i8* nocapture) local_unnamed_addr #3

; Function Attrs: argmemonly mustprogress nofree nounwind willreturn
declare i8* @strcpy(i8* noalias returned writeonly, i8* noalias nocapture readonly) local_unnamed_addr #4

; Function Attrs: argmemonly mustprogress nofree nosync nounwind willreturn
declare void @llvm.lifetime.end.p0i8(i64 immarg, i8* nocapture) #1

; Function Attrs: nofree nounwind
declare noundef i32 @printf(i8* nocapture noundef readonly, ...) local_unnamed_addr #5


!llvm.module.flags = !{!0, !1, !2, !3}
!llvm.ident = !{!4}

!0 = !{i32 1, !"wchar_size", i32 4}
!1 = !{i32 7, !"PIC Level", i32 2}
!2 = !{i32 7, !"PIE Level", i32 2}
!3 = !{i32 7, !"uwtable", i32 1}
!4 = !{!"clang version 13.0.0"}
!5 = !{!6, !6, i64 0}
!6 = !{!"omnipotent char", !7, i64 0}
!7 = !{!"Simple C/C++ TBAA"}
!8 = distinct !{!8, !9}
!9 = !{!"llvm.loop.mustprogress"}
